; Function Attrs: mustprogress uwtable
define dso_local noundef ptr @_ZN8FileLine25copyOrSameFileLineAppliedEv(ptr noundef nonnull align 8 dereferenceable(40) %0) local_unnamed_addr #3 align 2 personality ptr @__gxx_personality_v0 {
  tail call void @_ZN8V3Config12applyIgnoresEP8FileLine(ptr noundef nonnull %0)
  %2 = load ptr, ptr @_ZZN8FileLine18copyOrSameFileLineEvE8lastNewp, align 8
  %.not.i = icmp eq ptr %2, null
  br i1 %.not.i, label %._ZNK8FileLineeqERKS_.exit.thread_crit_edge.i, label %3

._ZNK8FileLineeqERKS_.exit.thread_crit_edge.i:    ; preds = %1
  %.phi.trans.insert.i = getelementptr inbounds i8, ptr %0, i64 8
  %.pre.i = load i32, ptr %.phi.trans.insert.i, align 8
  br label %_ZNK8FileLineeqERKS_.exit.thread.i

3:                                                ; preds = %1
  %4 = getelementptr inbounds i8, ptr %2, i64 8
  %5 = load i32, ptr %4, align 8
  %6 = getelementptr inbounds i8, ptr %0, i64 8
  %7 = load i32, ptr %6, align 8
  %8 = icmp eq i32 %5, %7
  br i1 %8, label %9, label %_ZNK8FileLineeqERKS_.exit.thread.i

9:                                                ; preds = %3
  %10 = getelementptr inbounds i8, ptr %2, i64 12
  %11 = load i32, ptr %10, align 4
  %12 = getelementptr inbounds i8, ptr %0, i64 12
  %13 = load i32, ptr %12, align 4
  %14 = icmp eq i32 %11, %13
  br i1 %14, label %15, label %_ZNK8FileLineeqERKS_.exit.thread.i

15:                                               ; preds = %9
  %16 = getelementptr inbounds i8, ptr %2, i64 16
  %17 = load i32, ptr %16, align 8
  %18 = getelementptr inbounds i8, ptr %0, i64 16
  %19 = load i32, ptr %18, align 8
  %20 = icmp eq i32 %17, %19
  br i1 %20, label %21, label %_ZNK8FileLineeqERKS_.exit.thread.i

21:                                               ; preds = %15
  %22 = getelementptr inbounds i8, ptr %2, i64 20
  %23 = load i32, ptr %22, align 4
  %24 = getelementptr inbounds i8, ptr %0, i64 20
  %25 = load i32, ptr %24, align 4
  %26 = icmp eq i32 %23, %25
  br i1 %26, label %27, label %_ZNK8FileLineeqERKS_.exit.thread.i

27:                                               ; preds = %21
  %28 = getelementptr inbounds i8, ptr %2, i64 2
  %29 = load i16, ptr %28, align 2
  %30 = getelementptr inbounds i8, ptr %0, i64 2
  %31 = load i16, ptr %30, align 2
  %32 = icmp eq i16 %29, %31
  br i1 %32, label %_ZNK8FileLineeqERKS_.exit.i, label %_ZNK8FileLineeqERKS_.exit.thread.i

_ZNK8FileLineeqERKS_.exit.i:                      ; preds = %27
  %33 = load i16, ptr %2, align 8
  %34 = load i16, ptr %0, align 8
  %35 = icmp eq i16 %33, %34
  br i1 %35, label %_ZN8FileLine18copyOrSameFileLineEv.exit, label %_ZNK8FileLineeqERKS_.exit.thread.i

_ZNK8FileLineeqERKS_.exit.thread.i:               ; preds = %_ZNK8FileLineeqERKS_.exit.i, %27, %21, %15, %9, %3, %._ZNK8FileLineeqERKS_.exit.thread_crit_edge.i
  %36 = phi i32 [ %.pre.i, %._ZNK8FileLineeqERKS_.exit.thread_crit_edge.i ], [ %7, %3 ], [ %5, %9 ], [ %5, %15 ], [ %5, %21 ], [ %5, %27 ], [ %5, %_ZNK8FileLineeqERKS_.exit.i ]
  %37 = tail call noalias noundef nonnull dereferenceable(40) ptr @_Znwm(i64 noundef 40) #24
  %38 = load <2 x i16>, ptr %0, align 8
  store <2 x i16> %38, ptr %37, align 8
  %39 = getelementptr inbounds i8, ptr %37, i64 4
  %40 = getelementptr inbounds i8, ptr %0, i64 4
  %41 = load i32, ptr %40, align 4
  store i32 %41, ptr %39, align 4
  %42 = getelementptr inbounds i8, ptr %37, i64 8
  store i32 %36, ptr %42, align 8
  %43 = getelementptr inbounds i8, ptr %37, i64 12
  %44 = getelementptr inbounds i8, ptr %0, i64 12
  %45 = load <2 x i32>, ptr %44, align 4
  store <2 x i32> %45, ptr %43, align 4
  %46 = getelementptr inbounds i8, ptr %37, i64 20
  %47 = getelementptr inbounds i8, ptr %0, i64 20
  %48 = load i32, ptr %47, align 4
  store i32 %48, ptr %46, align 4
  %49 = getelementptr inbounds i8, ptr %37, i64 24
  %50 = getelementptr inbounds i8, ptr %0, i64 24
  %51 = load ptr, ptr %50, align 8
  store ptr %51, ptr %49, align 8
  %52 = getelementptr inbounds i8, ptr %37, i64 32
  %53 = getelementptr inbounds i8, ptr %0, i64 32
  %54 = load ptr, ptr %53, align 8
  store ptr %54, ptr %52, align 8
  %.not.i.i = icmp eq ptr %51, null
  br i1 %.not.i.i, label %_ZN8FileLineC2EPS_.exit.i, label %55

55:                                               ; preds = %_ZNK8FileLineeqERKS_.exit.thread.i
  %56 = getelementptr inbounds i8, ptr %51, i64 8
  %57 = atomicrmw add ptr %56, i64 1 seq_cst, align 8
  br label %_ZN8FileLineC2EPS_.exit.i

_ZN8FileLineC2EPS_.exit.i:                        ; preds = %55, %_ZNK8FileLineeqERKS_.exit.thread.i
  store ptr %37, ptr @_ZZN8FileLine18copyOrSameFileLineEvE8lastNewp, align 8
  br label %_ZN8FileLine18copyOrSameFileLineEv.exit

_ZN8FileLine18copyOrSameFileLineEv.exit:          ; preds = %_ZNK8FileLineeqERKS_.exit.i, %_ZN8FileLineC2EPS_.exit.i
  %.0.i = phi ptr [ %37, %_ZN8FileLineC2EPS_.exit.i ], [ %2, %_ZNK8FileLineeqERKS_.exit.i ]
  ret ptr %.0.i
}